; Function Attrs: mustprogress nofree norecurse nosync nounwind willreturn memory(argmem: readwrite) uwtable
define hidden zeroext range(i8 0, 2) i8 @PyExpat_XML_SetBillionLaughsAttackProtectionActivationThreshold(ptr noundef %0, i64 noundef %1) local_unnamed_addr #4 {
  %3 = icmp eq ptr %0, null
  br i1 %3, label %9, label %4

4:                                                ; preds = %2
  %5 = getelementptr inbounds nuw i8, ptr %0, i64 912
  %6 = load ptr, ptr %5, align 8, !tbaa !66
  %.not = icmp eq ptr %6, null
  br i1 %.not, label %7, label %9

7:                                                ; preds = %4
  %8 = getelementptr inbounds nuw i8, ptr %0, i64 976
  store i64 %1, ptr %8, align 8, !tbaa !120
  br label %9

9:                                                ; preds = %2, %4, %7
  %.0 = phi i8 [ 1, %7 ], [ 0, %4 ], [ 0, %2 ]
  ret i8 %.0
}